target datalayout = "e-m:e-p270:32:32-p271:32:32-p272:64:64-i64:64-i128:128-f80:128-n8:16:32:64-S128"
target triple = "x86_64-pc-linux-gnu"

; Function Attrs: nounwind uwtable
define hidden ptr @tls12_get_hash(i8 noundef zeroext %0) #0 {
  %2 = alloca ptr, align 8
  %3 = alloca i8, align 1
  store i8 %0, ptr %3, align 1, !tbaa !103
  %4 = load i8, ptr %3, align 1, !tbaa !103
  %5 = zext i8 %4 to i32
  switch i32 %5, label %14 [
    i32 2, label %6
    i32 4, label %8
    i32 5, label %10
    i32 6, label %12
  ]

6:                                                ; preds = %1
  %7 = call ptr @EVP_sha1()
  store ptr %7, ptr %2, align 8
  br label %15

8:                                                ; preds = %1
  %9 = call ptr @EVP_sha256()
  store ptr %9, ptr %2, align 8
  br label %15

10:                                               ; preds = %1
  %11 = call ptr @EVP_sha384()
  store ptr %11, ptr %2, align 8
  br label %15

12:                                               ; preds = %1
  %13 = call ptr @EVP_sha512()
  store ptr %13, ptr %2, align 8
  br label %15

14:                                               ; preds = %1
  store ptr null, ptr %2, align 8
  br label %15

15:                                               ; preds = %14, %12, %10, %8, %6
  %16 = load ptr, ptr %2, align 8
  ret ptr %16
}