; Function Attrs: nounwind uwtable
define hidden ptr @tls12_get_hash(i8 noundef zeroext %0) local_unnamed_addr #0 {
  switch i8 %0, label %10 [
    i8 2, label %2
    i8 4, label %4
    i8 5, label %6
    i8 6, label %8
  ]

2:                                                ; preds = %1
  %3 = tail call ptr @EVP_sha1() #21
  br label %10

4:                                                ; preds = %1
  %5 = tail call ptr @EVP_sha256() #21
  br label %10

6:                                                ; preds = %1
  %7 = tail call ptr @EVP_sha384() #21
  br label %10

8:                                                ; preds = %1
  %9 = tail call ptr @EVP_sha512() #21
  br label %10

10:                                               ; preds = %1, %8, %6, %4, %2
  %.0 = phi ptr [ %9, %8 ], [ %7, %6 ], [ %5, %4 ], [ %3, %2 ], [ null, %1 ]
  ret ptr %.0
}